; ModuleID = '56/103.c'
source_filename = "56/103.c"
target datalayout = "e-m:e-p270:32:32-p271:32:32-p272:64:64-i64:64-f80:128-n8:16:32:64-S128"
target triple = "x86_64-pc-linux-gnu"

@.str = private unnamed_addr constant [3 x i8] c"%d\00", align 1
@.str.1 = private unnamed_addr constant [4 x i8] c"%d\0A\00", align 1

; Function Attrs: noinline nounwind uwtable
define dso_local i32 @main() #0 {
  %1 = alloca i32, align 4
  %2 = alloca i32, align 4
  %3 = alloca i32, align 4
  %4 = alloca i32, align 4
  %5 = alloca i32, align 4
  %6 = alloca i32, align 4
  store i32 0, i32* %1, align 4
  %7 = call i32 (i8*, ...) @__isoc99_scanf(i8* getelementptr inbounds ([3 x i8], [3 x i8]* @.str, i64 0, i64 0), i32* %2)
  %8 = load i32, i32* %2, align 4
  %9 = sdiv i32 %8, 100
  store i32 %9, i32* %4, align 4
  %10 = load i32, i32* %2, align 4
  %11 = load i32, i32* %4, align 4
  %12 = mul nsw i32 %11, 100
  %13 = sub nsw i32 %10, %12
  %14 = sdiv i32 %13, 10
  store i32 %14, i32* %5, align 4
  %15 = load i32, i32* %2, align 4
  %16 = load i32, i32* %4, align 4
  %17 = mul nsw i32 %16, 100
  %18 = sub nsw i32 %15, %17
  %19 = load i32, i32* %5, align 4
  %20 = mul nsw i32 %19, 10
  %21 = sub nsw i32 %18, %20
  store i32 %21, i32* %6, align 4
  %22 = load i32, i32* %6, align 4
  %23 = mul nsw i32 %22, 100
  %24 = load i32, i32* %5, align 4
  %25 = mul nsw i32 %24, 10
  %26 = add nsw i32 %23, %25
  %27 = load i32, i32* %4, align 4
  %28 = add nsw i32 %26, %27
  store i32 %28, i32* %3, align 4
  %29 = load i32, i32* %3, align 4
  %30 = call i32 (i8*, ...) @printf(i8* getelementptr inbounds ([4 x i8], [4 x i8]* @.str.1, i64 0, i64 0), i32 %29)
  ret i32 0
}

declare dso_local i32 @__isoc99_scanf(i8*, ...) #1

declare dso_local i32 @printf(i8*, ...) #1


!llvm.module.flags = !{!0}
!llvm.ident = !{!1}

!0 = !{i32 1, !"wchar_size", i32 4}
!1 = !{!"clang version 10.0.0-4ubuntu1 "}
